target datalayout = "e-m:e-p270:32:32-p271:32:32-p272:64:64-i64:64-i128:128-f80:128-n8:16:32:64-S128"
target triple = "x86_64-pc-linux-gnu"

%"class.boost::urls::url_view_base" = type { [8 x i8], %"struct.boost::urls::detail::url_impl", ptr }
%"struct.boost::urls::detail::url_impl" = type <{ ptr, [8 x i64], [7 x i64], i64, i64, [16 x i8], i16, [2 x i8], i32, i16, i8, [5 x i8] }>

; Function Attrs: mustprogress uwtable
define noundef ptr @_ZN5boost4urls8url_base11resize_implEimRNS1_4op_tE(ptr noundef nonnull align 8 dereferenceable(216) %0, i32 noundef %1, i64 noundef %2, ptr noundef nonnull align 8 dereferenceable(32) %3) #5 align 2 {
  %5 = alloca ptr, align 8
  %6 = alloca i32, align 4
  %7 = alloca i64, align 8
  %8 = alloca ptr, align 8
  store ptr %0, ptr %5, align 8, !tbaa !7
  store i32 %1, ptr %6, align 4, !tbaa !3
  store i64 %2, ptr %7, align 8, !tbaa !21
  store ptr %3, ptr %8, align 8, !tbaa !7
  %9 = load ptr, ptr %5, align 8
  %10 = load i32, ptr %6, align 4, !tbaa !3
  %11 = load i32, ptr %6, align 4, !tbaa !3
  %12 = add nsw i32 %11, 1
  %13 = load i64, ptr %7, align 8, !tbaa !21
  %14 = load ptr, ptr %8, align 8, !tbaa !7
  %15 = call noundef ptr @_ZN5boost4urls8url_base11resize_implEiimRNS1_4op_tE(ptr noundef nonnull align 8 dereferenceable(216) %9, i32 noundef %10, i32 noundef %12, i64 noundef %13, ptr noundef nonnull align 8 dereferenceable(32) %14)
  ret ptr %15
}

; Function Attrs: mustprogress nounwind uwtable
define linkonce_odr hidden noundef zeroext i1 @_ZNK5boost4urls13url_view_base16is_path_absoluteEv(ptr noundef nonnull align 8 dereferenceable(192) %0) #2 comdat align 2 {
  %2 = alloca ptr, align 8
  store ptr %0, ptr %2, align 8, !tbaa !7
  %3 = load ptr, ptr %2, align 8
  %4 = getelementptr inbounds nuw %"class.boost::urls::url_view_base", ptr %3, i32 0, i32 2
  %5 = load ptr, ptr %4, align 8, !tbaa !33
  %6 = call noundef i64 @_ZNK5boost4urls6detail8url_impl3lenEi(ptr noundef nonnull align 8 dereferenceable(171) %5, i32 noundef 4) #9
  %7 = icmp ugt i64 %6, 0
  br i1 %7, label %8, label %20

8:                                                ; preds = %1
  %9 = getelementptr inbounds nuw %"class.boost::urls::url_view_base", ptr %3, i32 0, i32 2
  %10 = load ptr, ptr %9, align 8, !tbaa !33
  %11 = getelementptr inbounds nuw %"struct.boost::urls::detail::url_impl", ptr %10, i32 0, i32 0
  %12 = load ptr, ptr %11, align 8, !tbaa !36
  %13 = getelementptr inbounds nuw %"class.boost::urls::url_view_base", ptr %3, i32 0, i32 2
  %14 = load ptr, ptr %13, align 8, !tbaa !33
  %15 = call noundef i64 @_ZNK5boost4urls6detail8url_impl6offsetEi(ptr noundef nonnull align 8 dereferenceable(171) %14, i32 noundef 4) #9
  %16 = getelementptr inbounds nuw i8, ptr %12, i64 %15
  %17 = load i8, ptr %16, align 1, !tbaa !32
  %18 = sext i8 %17 to i32
  %19 = icmp eq i32 %18, 47
  br label %20

20:                                               ; preds = %8, %1
  %21 = phi i1 [ false, %1 ], [ %19, %8 ]
  ret i1 %21
}

; Function Attrs: mustprogress nounwind uwtable
define void @_ZNK5boost4urls8url_base16check_invariantsEv(ptr noundef nonnull align 8 dereferenceable(216) %0) #2 align 2 {
  %2 = alloca ptr, align 8
  store ptr %0, ptr %2, align 8, !tbaa !7
  ret void
}

; Function Attrs: mustprogress uwtable
define noundef ptr @_ZN5boost4urls8url_base13set_host_implEmRNS1_4op_tE(ptr noundef nonnull align 8 dereferenceable(216) %0, i64 noundef %1, ptr noundef nonnull align 8 dereferenceable(32) %2) #5 align 2 {
  %4 = alloca ptr, align 8
  %5 = alloca ptr, align 8
  %6 = alloca i64, align 8
  %7 = alloca ptr, align 8
  %8 = alloca i8, align 1
  %9 = alloca i64, align 8
  %10 = alloca ptr, align 8
  %11 = alloca ptr, align 8
  store ptr %0, ptr %5, align 8, !tbaa !7
  store i64 %1, ptr %6, align 8, !tbaa !21
  store ptr %2, ptr %7, align 8, !tbaa !7
  %12 = load ptr, ptr %5, align 8
  call void @_ZNK5boost4urls8url_base16check_invariantsEv(ptr noundef nonnull align 8 dereferenceable(216) %12) #9
  %13 = getelementptr inbounds i8, ptr %12, i64 8
  %14 = getelementptr inbounds nuw %"class.boost::urls::url_view_base", ptr %13, i32 0, i32 1
  %15 = call noundef i64 @_ZNK5boost4urls6detail8url_impl3lenEi(ptr noundef nonnull align 8 dereferenceable(171) %14, i32 noundef 0) #9
  %16 = icmp eq i64 %15, 0
  br i1 %16, label %17, label %75

17:                                               ; preds = %3
  call void @llvm.lifetime.start.p0(i64 1, ptr %8) #9
  %18 = getelementptr inbounds i8, ptr %12, i64 8
  %19 = call noundef zeroext i1 @_ZNK5boost4urls13url_view_base16is_path_absoluteEv(ptr noundef nonnull align 8 dereferenceable(192) %18) #9
  br i1 %19, label %25, label %20

20:                                               ; preds = %17
  %21 = getelementptr inbounds i8, ptr %12, i64 8
  %22 = getelementptr inbounds nuw %"class.boost::urls::url_view_base", ptr %21, i32 0, i32 1
  %23 = call noundef i64 @_ZNK5boost4urls6detail8url_impl3lenEi(ptr noundef nonnull align 8 dereferenceable(171) %22, i32 noundef 4) #9
  %24 = icmp ne i64 %23, 0
  br label %25

25:                                               ; preds = %20, %17
  %26 = phi i1 [ false, %17 ], [ %24, %20 ]
  %27 = zext i1 %26 to i8
  store i8 %27, ptr %8, align 1, !tbaa !42
  call void @llvm.lifetime.start.p0(i64 8, ptr %9) #9
  %28 = getelementptr inbounds i8, ptr %12, i64 8
  %29 = getelementptr inbounds nuw %"class.boost::urls::url_view_base", ptr %28, i32 0, i32 1
  %30 = call noundef i64 @_ZNK5boost4urls6detail8url_impl3lenEi(ptr noundef nonnull align 8 dereferenceable(171) %29, i32 noundef 4) #9
  store i64 %30, ptr %9, align 8, !tbaa !21
  call void @llvm.lifetime.start.p0(i64 8, ptr %10) #9
  %31 = load i64, ptr %6, align 8, !tbaa !21
  %32 = add i64 %31, 2
  %33 = load i8, ptr %8, align 1, !tbaa !42, !range !44, !noundef !45
  %34 = trunc i8 %33 to i1
  %35 = zext i1 %34 to i64
  %36 = add i64 %32, %35
  %37 = load ptr, ptr %7, align 8, !tbaa !7
  %38 = call noundef ptr @_ZN5boost4urls8url_base11resize_implEimRNS1_4op_tE(ptr noundef nonnull align 8 dereferenceable(216) %12, i32 noundef 0, i64 noundef %36, ptr noundef nonnull align 8 dereferenceable(32) %37)
  store ptr %38, ptr %10, align 8, !tbaa !7
  %39 = getelementptr inbounds i8, ptr %12, i64 8
  %40 = getelementptr inbounds nuw %"class.boost::urls::url_view_base", ptr %39, i32 0, i32 1
  call void @_ZN5boost4urls6detail8url_impl5splitEim(ptr noundef nonnull align 8 dereferenceable(171) %40, i32 noundef 0, i64 noundef 2) #9
  %41 = getelementptr inbounds i8, ptr %12, i64 8
  %42 = getelementptr inbounds nuw %"class.boost::urls::url_view_base", ptr %41, i32 0, i32 1
  call void @_ZN5boost4urls6detail8url_impl5splitEim(ptr noundef nonnull align 8 dereferenceable(171) %42, i32 noundef 1, i64 noundef 0) #9
  %43 = getelementptr inbounds i8, ptr %12, i64 8
  %44 = getelementptr inbounds nuw %"class.boost::urls::url_view_base", ptr %43, i32 0, i32 1
  %45 = load i64, ptr %6, align 8, !tbaa !21
  call void @_ZN5boost4urls6detail8url_impl5splitEim(ptr noundef nonnull align 8 dereferenceable(171) %44, i32 noundef 2, i64 noundef %45) #9
  %46 = getelementptr inbounds i8, ptr %12, i64 8
  %47 = getelementptr inbounds nuw %"class.boost::urls::url_view_base", ptr %46, i32 0, i32 1
  call void @_ZN5boost4urls6detail8url_impl5splitEim(ptr noundef nonnull align 8 dereferenceable(171) %47, i32 noundef 3, i64 noundef 0) #9
  %48 = getelementptr inbounds i8, ptr %12, i64 8
  %49 = getelementptr inbounds nuw %"class.boost::urls::url_view_base", ptr %48, i32 0, i32 1
  %50 = load i64, ptr %9, align 8, !tbaa !21
  %51 = load i8, ptr %8, align 1, !tbaa !42, !range !44, !noundef !45
  %52 = trunc i8 %51 to i1
  %53 = zext i1 %52 to i64
  %54 = add i64 %50, %53
  call void @_ZN5boost4urls6detail8url_impl5splitEim(ptr noundef nonnull align 8 dereferenceable(171) %49, i32 noundef 4, i64 noundef %54) #9
  %55 = load i8, ptr %8, align 1, !tbaa !42, !range !44, !noundef !45
  %56 = trunc i8 %55 to i1
  br i1 %56, label %57, label %68

57:                                               ; preds = %25
  %58 = load ptr, ptr %10, align 8, !tbaa !7
  %59 = load i64, ptr %6, align 8, !tbaa !21
  %60 = add i64 %59, 2
  %61 = getelementptr inbounds nuw i8, ptr %58, i64 %60
  store i8 47, ptr %61, align 1, !tbaa !32
  %62 = getelementptr inbounds i8, ptr %12, i64 8
  %63 = getelementptr inbounds nuw %"class.boost::urls::url_view_base", ptr %62, i32 0, i32 1
  %64 = getelementptr inbounds nuw %"struct.boost::urls::detail::url_impl", ptr %63, i32 0, i32 2
  %65 = getelementptr inbounds [7 x i64], ptr %64, i64 0, i64 4
  %66 = load i64, ptr %65, align 8, !tbaa !21
  %67 = add i64 %66, 1
  store i64 %67, ptr %65, align 8, !tbaa !21
  br label %68

68:                                               ; preds = %57, %25
  %69 = load ptr, ptr %10, align 8, !tbaa !7
  %70 = getelementptr inbounds i8, ptr %69, i64 0
  store i8 47, ptr %70, align 1, !tbaa !32
  %71 = load ptr, ptr %10, align 8, !tbaa !7
  %72 = getelementptr inbounds i8, ptr %71, i64 1
  store i8 47, ptr %72, align 1, !tbaa !32
  call void @_ZNK5boost4urls8url_base16check_invariantsEv(ptr noundef nonnull align 8 dereferenceable(216) %12) #9
  %73 = load ptr, ptr %10, align 8, !tbaa !7
  %74 = getelementptr inbounds i8, ptr %73, i64 2
  store ptr %74, ptr %4, align 8
  call void @llvm.lifetime.end.p0(i64 8, ptr %10) #9
  call void @llvm.lifetime.end.p0(i64 8, ptr %9) #9
  call void @llvm.lifetime.end.p0(i64 1, ptr %8) #9
  br label %80

75:                                               ; preds = %3
  call void @llvm.lifetime.start.p0(i64 8, ptr %11) #9
  %76 = load i64, ptr %6, align 8, !tbaa !21
  %77 = load ptr, ptr %7, align 8, !tbaa !7
  %78 = call noundef ptr @_ZN5boost4urls8url_base11resize_implEimRNS1_4op_tE(ptr noundef nonnull align 8 dereferenceable(216) %12, i32 noundef 2, i64 noundef %76, ptr noundef nonnull align 8 dereferenceable(32) %77)
  store ptr %78, ptr %11, align 8, !tbaa !7
  call void @_ZNK5boost4urls8url_base16check_invariantsEv(ptr noundef nonnull align 8 dereferenceable(216) %12) #9
  %79 = load ptr, ptr %11, align 8, !tbaa !7
  store ptr %79, ptr %4, align 8
  call void @llvm.lifetime.end.p0(i64 8, ptr %11) #9
  br label %80

80:                                               ; preds = %75, %68
  %81 = load ptr, ptr %4, align 8
  ret ptr %81
}