; Function Attrs: mustprogress uwtable
define noundef ptr @_ZN5boost4urls8url_base13set_host_implEmRNS1_4op_tE(ptr noundef nonnull align 8 dereferenceable(216) %0, i64 noundef %1, ptr noundef nonnull align 8 dereferenceable(32) %2) local_unnamed_addr #10 align 2 {
  %4 = getelementptr inbounds i8, ptr %0, i64 16
  %5 = tail call noundef i64 @_ZNK5boost4urls6detail8url_impl3lenEi(ptr noundef nonnull align 8 dereferenceable(171) %4, i32 noundef 0) #30
  %6 = icmp eq i64 %5, 0
  br i1 %6, label %7, label %35

7:                                                ; preds = %3
  %8 = getelementptr inbounds i8, ptr %0, i64 192
  %9 = load ptr, ptr %8, align 8, !tbaa !24
  %10 = tail call noundef i64 @_ZNK5boost4urls6detail8url_impl3lenEi(ptr noundef nonnull align 8 dereferenceable(171) %9, i32 noundef 4) #30
  %.not.i = icmp eq i64 %10, 0
  br i1 %.not.i, label %_ZNK5boost4urls13url_view_base16is_path_absoluteEv.exit.thread, label %_ZNK5boost4urls13url_view_base16is_path_absoluteEv.exit

_ZNK5boost4urls13url_view_base16is_path_absoluteEv.exit: ; preds = %7
  %11 = load ptr, ptr %8, align 8, !tbaa !24
  %12 = load ptr, ptr %11, align 8, !tbaa !28
  %13 = tail call noundef i64 @_ZNK5boost4urls6detail8url_impl6offsetEi(ptr noundef nonnull align 8 dereferenceable(171) %11, i32 noundef 4) #30
  %14 = getelementptr inbounds nuw i8, ptr %12, i64 %13
  %15 = load i8, ptr %14, align 1, !tbaa !25
  %16 = icmp eq i8 %15, 47
  br i1 %16, label %19, label %_ZNK5boost4urls13url_view_base16is_path_absoluteEv.exit.thread

_ZNK5boost4urls13url_view_base16is_path_absoluteEv.exit.thread: ; preds = %7, %_ZNK5boost4urls13url_view_base16is_path_absoluteEv.exit
  %17 = tail call noundef i64 @_ZNK5boost4urls6detail8url_impl3lenEi(ptr noundef nonnull align 8 dereferenceable(171) %4, i32 noundef 4) #30
  %18 = icmp ne i64 %17, 0
  br label %19

19:                                               ; preds = %_ZNK5boost4urls13url_view_base16is_path_absoluteEv.exit.thread, %_ZNK5boost4urls13url_view_base16is_path_absoluteEv.exit
  %20 = phi i1 [ false, %_ZNK5boost4urls13url_view_base16is_path_absoluteEv.exit ], [ %18, %_ZNK5boost4urls13url_view_base16is_path_absoluteEv.exit.thread ]
  %21 = tail call noundef i64 @_ZNK5boost4urls6detail8url_impl3lenEi(ptr noundef nonnull align 8 dereferenceable(171) %4, i32 noundef 4) #30
  %22 = add i64 %1, 2
  %23 = zext i1 %20 to i64
  %24 = add i64 %22, %23
  %25 = tail call noundef ptr @_ZN5boost4urls8url_base11resize_implEiimRNS1_4op_tE(ptr noundef nonnull align 8 dereferenceable(216) %0, i32 noundef 0, i32 noundef 1, i64 noundef %24, ptr noundef nonnull align 8 dereferenceable(32) %2)
  tail call void @_ZN5boost4urls6detail8url_impl5splitEim(ptr noundef nonnull align 8 dereferenceable(171) %4, i32 noundef 0, i64 noundef 2) #30
  tail call void @_ZN5boost4urls6detail8url_impl5splitEim(ptr noundef nonnull align 8 dereferenceable(171) %4, i32 noundef 1, i64 noundef 0) #30
  tail call void @_ZN5boost4urls6detail8url_impl5splitEim(ptr noundef nonnull align 8 dereferenceable(171) %4, i32 noundef 2, i64 noundef %1) #30
  tail call void @_ZN5boost4urls6detail8url_impl5splitEim(ptr noundef nonnull align 8 dereferenceable(171) %4, i32 noundef 3, i64 noundef 0) #30
  %26 = add i64 %21, %23
  tail call void @_ZN5boost4urls6detail8url_impl5splitEim(ptr noundef nonnull align 8 dereferenceable(171) %4, i32 noundef 4, i64 noundef %26) #30
  br i1 %20, label %27, label %32

27:                                               ; preds = %19
  %28 = getelementptr inbounds nuw i8, ptr %25, i64 %22
  store i8 47, ptr %28, align 1, !tbaa !25
  %29 = getelementptr inbounds i8, ptr %0, i64 120
  %30 = load i64, ptr %29, align 8, !tbaa !14
  %31 = add i64 %30, 1
  store i64 %31, ptr %29, align 8, !tbaa !14
  br label %32

32:                                               ; preds = %27, %19
  store i8 47, ptr %25, align 1, !tbaa !25
  %33 = getelementptr inbounds i8, ptr %25, i64 1
  store i8 47, ptr %33, align 1, !tbaa !25
  %34 = getelementptr inbounds i8, ptr %25, i64 2
  br label %37

35:                                               ; preds = %3
  %36 = tail call noundef ptr @_ZN5boost4urls8url_base11resize_implEiimRNS1_4op_tE(ptr noundef nonnull align 8 dereferenceable(216) %0, i32 noundef 2, i32 noundef 3, i64 noundef %1, ptr noundef nonnull align 8 dereferenceable(32) %2)
  br label %37

37:                                               ; preds = %35, %32
  %.0 = phi ptr [ %34, %32 ], [ %36, %35 ]
  ret ptr %.0
}